; Function Attrs: nounwind uwtable
define internal fastcc noalias nonnull ptr @_init_l_panic___at_Lean_Meta_substCore___spec__4___closed__1() unnamed_addr #0 {
  tail call void @lean_inc_heartbeat() #4
  %1 = tail call noalias ptr @mi_malloc_small(i64 noundef 32) #4
  %2 = icmp eq ptr %1, null
  br i1 %2, label %3, label %lean_alloc_closure.exit

3:                                                ; preds = %0
  tail call void @lean_internal_panic_out_of_memory() #5
  unreachable

lean_alloc_closure.exit:                          ; preds = %0
  %4 = getelementptr inbounds nuw i8, ptr %1, i64 4
  store i32 1, ptr %1, align 4, !tbaa !5
  store i32 -184549344, ptr %4, align 4
  %5 = getelementptr inbounds nuw i8, ptr %1, i64 8
  store ptr @l_Lean_Meta_instInhabitedMetaM___boxed, ptr %5, align 8, !tbaa !11
  %6 = getelementptr inbounds nuw i8, ptr %1, i64 16
  store i16 5, ptr %6, align 8, !tbaa !16
  %7 = getelementptr inbounds nuw i8, ptr %1, i64 18
  store i16 1, ptr %7, align 2, !tbaa !16
  %8 = getelementptr inbounds nuw i8, ptr %1, i64 24
  store ptr inttoptr (i64 1 to ptr), ptr %8, align 8, !tbaa !11
  ret ptr %1
}